; Function Attrs: mustprogress uwtable
define void @_ZN27ModulePreferencesScrollArea19boolCheckBoxToggledEb(ptr noundef nonnull align 8 dereferenceable(56) %0, i1 noundef zeroext %1) #0 align 2 personality ptr @__gxx_personality_v0 {
  %3 = alloca %class.QVariant, align 8
  %4 = tail call noundef ptr @_ZNK7QObject6senderEv(ptr noundef nonnull align 8 dereferenceable(16) %0)
  %5 = tail call noundef ptr @_ZNK11QMetaObject4castEPK7QObject(ptr noundef nonnull align 8 dereferenceable(56) @_ZN9QCheckBox16staticMetaObjectE, ptr noundef %4)
  %.not = icmp eq ptr %5, null
  br i1 %.not, label %14, label %6

6:                                                ; preds = %2
  %7 = load ptr, ptr @pref_prop_, align 8
  call void @_ZNK7QObject8propertyEPKc(ptr dead_on_unwind nonnull writable sret(%class.QVariant) align 8 %3, ptr noundef nonnull align 8 dereferenceable(16) %5, ptr noundef %7)
  %8 = invoke noundef ptr @_Z13qvariant_castIPvET_RK8QVariant(ptr noundef nonnull align 8 dereferenceable(32) %3)
          to label %_ZN14VariantPointerI10preferenceE5asPtrE8QVariant.exit unwind label %9

_ZN14VariantPointerI10preferenceE5asPtrE8QVariant.exit: ; preds = %6
  call void @_ZN8QVariantD1Ev(ptr noundef nonnull align 8 dereferenceable(32) %3) #15
  %.not8 = icmp eq ptr %8, null
  br i1 %.not8, label %14, label %11

9:                                                ; preds = %6
  %10 = landingpad { ptr, i32 }
          cleanup
  call void @_ZN8QVariantD1Ev(ptr noundef nonnull align 8 dereferenceable(32) %3) #15
  resume { ptr, i32 } %10

11:                                               ; preds = %_ZN14VariantPointerI10preferenceE5asPtrE8QVariant.exit
  %12 = zext i1 %1 to i32
  %13 = call i32 @prefs_set_bool_value(ptr noundef nonnull %8, i32 noundef %12, i32 noundef 1)
  br label %14

14:                                               ; preds = %_ZN14VariantPointerI10preferenceE5asPtrE8QVariant.exit, %2, %11
  ret void
}